target datalayout = "e-m:e-p270:32:32-p271:32:32-p272:64:64-i64:64-i128:128-f80:128-n8:16:32:64-S128"
target triple = "x86_64-pc-linux-gnu"

%"class.absl::lts_20240722::ReleasableMutexLock" = type { ptr }
%"class.grpc_core::WorkSerializer::WorkSerializerImpl" = type { %"class.grpc_core::Orphanable", %"class.grpc_event_engine::experimental::EventEngine::Closure", %"class.absl::lts_20240722::InlinedVector", %"class.std::shared_ptr", %"class.std::chrono::time_point", %"class.std::chrono::duration", i64, i8, i8, %"class.absl::lts_20240722::Mutex", [8 x i8], %"class.absl::lts_20240722::InlinedVector" }
%"class.grpc_core::Orphanable" = type { ptr }
%"class.grpc_event_engine::experimental::EventEngine::Closure" = type { ptr }
%"class.std::shared_ptr" = type { %"class.std::__shared_ptr" }
%"class.std::__shared_ptr" = type { ptr, %"class.std::__shared_count" }
%"class.std::__shared_count" = type { ptr }
%"class.std::chrono::time_point" = type { %"class.std::chrono::duration" }
%"class.std::chrono::duration" = type { i64 }
%"class.absl::lts_20240722::Mutex" = type { %"struct.std::atomic" }
%"struct.std::atomic" = type { %"struct.std::__atomic_base" }
%"struct.std::__atomic_base" = type { i64 }
%"class.absl::lts_20240722::InlinedVector" = type { %"class.absl::lts_20240722::inlined_vector_internal::Storage" }
%"class.absl::lts_20240722::inlined_vector_internal::Storage" = type { %"class.absl::lts_20240722::container_internal::CompressedTuple", [8 x i8], %"union.absl::lts_20240722::inlined_vector_internal::Storage<grpc_core::WorkSerializer::WorkSerializerImpl::CallbackWrapper, 1, std::allocator<grpc_core::WorkSerializer::WorkSerializerImpl::CallbackWrapper>>::Data" }
%"class.absl::lts_20240722::container_internal::CompressedTuple" = type { %"struct.absl::lts_20240722::container_internal::internal_compressed_tuple::CompressedTupleImpl" }
%"struct.absl::lts_20240722::container_internal::internal_compressed_tuple::CompressedTupleImpl" = type { %"struct.absl::lts_20240722::container_internal::internal_compressed_tuple::Storage.0" }
%"struct.absl::lts_20240722::container_internal::internal_compressed_tuple::Storage.0" = type { i64 }
%"union.absl::lts_20240722::inlined_vector_internal::Storage<grpc_core::WorkSerializer::WorkSerializerImpl::CallbackWrapper, 1, std::allocator<grpc_core::WorkSerializer::WorkSerializerImpl::CallbackWrapper>>::Data" = type { %"struct.absl::lts_20240722::inlined_vector_internal::Storage<grpc_core::WorkSerializer::WorkSerializerImpl::CallbackWrapper, 1, std::allocator<grpc_core::WorkSerializer::WorkSerializerImpl::CallbackWrapper>>::Allocated", [16 x i8] }
%"struct.absl::lts_20240722::inlined_vector_internal::Storage<grpc_core::WorkSerializer::WorkSerializerImpl::CallbackWrapper, 1, std::allocator<grpc_core::WorkSerializer::WorkSerializerImpl::CallbackWrapper>>::Allocated" = type { ptr, i64 }

; Function Attrs: mustprogress uwtable
define linkonce_odr void @_ZN4absl12lts_2024072219ReleasableMutexLockC2EPNS0_5MutexE(ptr noundef nonnull align 8 dereferenceable(8) %0, ptr noundef %1) unnamed_addr #4 comdat align 2 {
  %3 = alloca ptr, align 8
  %4 = alloca ptr, align 8
  store ptr %0, ptr %3, align 8, !tbaa !34
  store ptr %1, ptr %4, align 8, !tbaa !36
  %5 = load ptr, ptr %3, align 8
  %6 = getelementptr inbounds nuw %"class.absl::lts_20240722::ReleasableMutexLock", ptr %5, i32 0, i32 0
  %7 = load ptr, ptr %4, align 8, !tbaa !36
  store ptr %7, ptr %6, align 8, !tbaa !38
  %8 = getelementptr inbounds nuw %"class.absl::lts_20240722::ReleasableMutexLock", ptr %5, i32 0, i32 0
  %9 = load ptr, ptr %8, align 8, !tbaa !38
  call void @_ZN4absl12lts_202407225Mutex4LockEv(ptr noundef nonnull align 8 dereferenceable(8) %9)
  ret void
}

; Function Attrs: mustprogress uwtable
define void @_ZN9grpc_core14WorkSerializer18WorkSerializerImpl6OrphanEv(ptr noundef nonnull align 16 dereferenceable(176) %0) unnamed_addr #4 align 2 personality ptr @__gxx_personality_v0 {
  %2 = alloca ptr, align 8
  %3 = alloca %"class.absl::lts_20240722::ReleasableMutexLock", align 8
  %4 = alloca ptr, align 8
  %5 = alloca i32, align 4
  %6 = alloca i32, align 4
  store ptr %0, ptr %2, align 8, !tbaa !3
  %7 = load ptr, ptr %2, align 8
  call void @llvm.lifetime.start.p0(i64 8, ptr %3) #3
  %8 = getelementptr inbounds nuw %"class.grpc_core::WorkSerializer::WorkSerializerImpl", ptr %7, i32 0, i32 9
  call void @_ZN4absl12lts_2024072219ReleasableMutexLockC2EPNS0_5MutexE(ptr noundef nonnull align 8 dereferenceable(8) %3, ptr noundef %8)
  %9 = getelementptr inbounds nuw %"class.grpc_core::WorkSerializer::WorkSerializerImpl", ptr %7, i32 0, i32 7
  %10 = load i8, ptr %9, align 8, !tbaa !8, !range !29, !noundef !30
  %11 = trunc i8 %10 to i1
  br i1 %11, label %24, label %12

12:                                               ; preds = %1
  invoke void @_ZN4absl12lts_2024072219ReleasableMutexLock7ReleaseEv(ptr noundef nonnull align 8 dereferenceable(8) %3)
          to label %13 unwind label %20

13:                                               ; preds = %12
  %14 = icmp eq ptr %7, null
  br i1 %14, label %19, label %15

15:                                               ; preds = %13
  %16 = load ptr, ptr %7, align 16, !tbaa !31
  %17 = getelementptr inbounds ptr, ptr %16, i64 2
  %18 = load ptr, ptr %17, align 8
  call void %18(ptr noundef nonnull align 16 dereferenceable(176) %7) #3
  br label %19

19:                                               ; preds = %15, %13
  store i32 1, ptr %6, align 4
  br label %26

20:                                               ; preds = %12
  %21 = landingpad { ptr, i32 }
          cleanup
  %22 = extractvalue { ptr, i32 } %21, 0
  store ptr %22, ptr %4, align 8
  %23 = extractvalue { ptr, i32 } %21, 1
  store i32 %23, ptr %5, align 4
  call void @_ZN4absl12lts_2024072219ReleasableMutexLockD2Ev(ptr noundef nonnull align 8 dereferenceable(8) %3) #3
  call void @llvm.lifetime.end.p0(i64 8, ptr %3) #3
  br label %29

24:                                               ; preds = %1
  %25 = getelementptr inbounds nuw %"class.grpc_core::WorkSerializer::WorkSerializerImpl", ptr %7, i32 0, i32 8
  store i8 1, ptr %25, align 1, !tbaa !33
  store i32 0, ptr %6, align 4
  br label %26

26:                                               ; preds = %24, %19
  call void @_ZN4absl12lts_2024072219ReleasableMutexLockD2Ev(ptr noundef nonnull align 8 dereferenceable(8) %3) #3
  call void @llvm.lifetime.end.p0(i64 8, ptr %3) #3
  %27 = load i32, ptr %6, align 4
  switch i32 %27, label %34 [
    i32 0, label %28
    i32 1, label %28
  ]

28:                                               ; preds = %26, %26
  ret void

29:                                               ; preds = %20
  %30 = load ptr, ptr %4, align 8
  %31 = load i32, ptr %5, align 4
  %32 = insertvalue { ptr, i32 } poison, ptr %30, 0
  %33 = insertvalue { ptr, i32 } %32, i32 %31, 1
  resume { ptr, i32 } %33

34:                                               ; preds = %26
  unreachable
}