; Function Attrs: mustprogress uwtable
define void @_ZN9grpc_core14WorkSerializer18WorkSerializerImpl6OrphanEv(ptr noundef nonnull align 16 dereferenceable(176) %0) unnamed_addr #3 align 2 personality ptr @__gxx_personality_v0 {
  %2 = alloca %"class.absl::lts_20240722::ReleasableMutexLock", align 8
  call void @llvm.lifetime.start.p0(i64 8, ptr nonnull %2) #25
  %3 = getelementptr inbounds nuw i8, ptr %0, i64 112
  store ptr %3, ptr %2, align 8, !tbaa !3
  tail call void @_ZN4absl12lts_202407225Mutex4LockEv(ptr noundef nonnull align 8 dereferenceable(8) %3)
  %4 = getelementptr inbounds nuw i8, ptr %0, i64 104
  %5 = load i8, ptr %4, align 8, !tbaa !9, !range !30, !noundef !31
  %6 = trunc nuw i8 %5 to i1
  br i1 %6, label %.thread, label %7

7:                                                ; preds = %1
  invoke void @_ZN4absl12lts_2024072219ReleasableMutexLock7ReleaseEv(ptr noundef nonnull align 8 dereferenceable(8) %2)
          to label %11 unwind label %8

8:                                                ; preds = %7
  %9 = landingpad { ptr, i32 }
          cleanup
  call void @_ZN4absl12lts_2024072219ReleasableMutexLockD2Ev(ptr noundef nonnull align 8 dereferenceable(8) %2) #25
  call void @llvm.lifetime.end.p0(i64 8, ptr nonnull %2) #25
  resume { ptr, i32 } %9

.thread:                                          ; preds = %1
  %10 = getelementptr inbounds nuw i8, ptr %0, i64 105
  store i8 1, ptr %10, align 1, !tbaa !32
  br label %15

11:                                               ; preds = %7
  %12 = load ptr, ptr %0, align 16, !tbaa !33
  %13 = getelementptr inbounds nuw i8, ptr %12, i64 16
  %14 = load ptr, ptr %13, align 8
  call void %14(ptr noundef nonnull align 16 dereferenceable(176) %0) #25
  %.pre = load ptr, ptr %2, align 8, !tbaa !3
  %.not.i = icmp eq ptr %.pre, null
  br i1 %.not.i, label %_ZN4absl12lts_2024072219ReleasableMutexLockD2Ev.exit, label %15

15:                                               ; preds = %.thread, %11
  %16 = phi ptr [ %3, %.thread ], [ %.pre, %11 ]
  invoke void @_ZN4absl12lts_202407225Mutex6UnlockEv(ptr noundef nonnull align 8 dereferenceable(8) %16)
          to label %_ZN4absl12lts_2024072219ReleasableMutexLockD2Ev.exit unwind label %17

17:                                               ; preds = %15
  %18 = landingpad { ptr, i32 }
          catch ptr null
  %19 = extractvalue { ptr, i32 } %18, 0
  call void @__clang_call_terminate(ptr %19) #26
  unreachable

_ZN4absl12lts_2024072219ReleasableMutexLockD2Ev.exit: ; preds = %11, %15
  call void @llvm.lifetime.end.p0(i64 8, ptr nonnull %2) #25
  ret void
}